; Function Attrs: mustprogress nofree nounwind willreturn memory(write, argmem: readwrite) uwtable
define internal noundef float @"_ZNSt17_Function_handlerIFfdEZN19OpenColorIO_v2_5dev11CANON_CLOG319GenerateOpsToLinearERNS1_10OpRcPtrVecEE3$_0E9_M_invokeERKSt9_Any_dataOd"(ptr nonnull readnone align 8 captures(none) %0, ptr noundef nonnull readonly align 8 captures(none) dereferenceable(8) %1) #9 align 2 {
  %.val = load double, ptr %1, align 8, !tbaa !12
  %3 = fcmp olt double %.val, 0x3FB8F37F4B063012
  br i1 %3, label %4, label %10

4:                                                ; preds = %2
  %5 = fsub double 0x3FC05D07578D2FA9, %.val
  %6 = fdiv double %5, 0x3FD781538766912F
  %7 = tail call noundef double @pow(double noundef 1.000000e+01, double noundef %6) #15, !tbaa !14
  %8 = fadd double %7, -1.000000e+00
  %9 = fdiv double %8, 0xC02DF76C8B439581
  br label %"_ZSt10__invoke_rIfRZN19OpenColorIO_v2_5dev11CANON_CLOG319GenerateOpsToLinearERNS0_10OpRcPtrVecEE3$_0JdEENSt9enable_ifIXsr6__and_ISt6__not_ISt7is_voidIT_EESt14is_convertibleINSt15__invoke_resultIT0_JDpT1_EE4typeES9_EEE5valueES9_E4typeEOSE_DpOSF_.exit"

10:                                               ; preds = %2
  %11 = fcmp ugt double %.val, 0x3FC38E4262FBF8B4
  br i1 %11, label %15, label %12

12:                                               ; preds = %10
  %13 = fadd double %.val, 0xBFC004010106E623
  %14 = fdiv double %13, 0x3FFF9B90B4EE89B6
  br label %"_ZSt10__invoke_rIfRZN19OpenColorIO_v2_5dev11CANON_CLOG319GenerateOpsToLinearERNS0_10OpRcPtrVecEE3$_0JdEENSt9enable_ifIXsr6__and_ISt6__not_ISt7is_voidIT_EESt14is_convertibleINSt15__invoke_resultIT0_JDpT1_EE4typeES9_EEE5valueES9_E4typeEOSE_DpOSF_.exit"

15:                                               ; preds = %10
  %16 = fadd double %.val, 0xBFBF55F55501393B
  %17 = fdiv double %16, 0x3FD781538766912F
  %18 = tail call noundef double @pow(double noundef 1.000000e+01, double noundef %17) #15, !tbaa !14
  %19 = fadd double %18, -1.000000e+00
  %20 = fdiv double %19, 0x402DF76C8B439581
  br label %"_ZSt10__invoke_rIfRZN19OpenColorIO_v2_5dev11CANON_CLOG319GenerateOpsToLinearERNS0_10OpRcPtrVecEE3$_0JdEENSt9enable_ifIXsr6__and_ISt6__not_ISt7is_voidIT_EESt14is_convertibleINSt15__invoke_resultIT0_JDpT1_EE4typeES9_EEE5valueES9_E4typeEOSE_DpOSF_.exit"

"_ZSt10__invoke_rIfRZN19OpenColorIO_v2_5dev11CANON_CLOG319GenerateOpsToLinearERNS0_10OpRcPtrVecEE3$_0JdEENSt9enable_ifIXsr6__and_ISt6__not_ISt7is_voidIT_EESt14is_convertibleINSt15__invoke_resultIT0_JDpT1_EE4typeES9_EEE5valueES9_E4typeEOSE_DpOSF_.exit": ; preds = %4, %12, %15
  %.0.i.i.i = phi double [ %9, %4 ], [ %14, %12 ], [ %20, %15 ]
  %21 = fmul double %.0.i.i.i, 9.000000e-01
  %22 = fptrunc double %21 to float
  ret float %22
}